target datalayout = "e-m:e-p270:32:32-p271:32:32-p272:64:64-i64:64-i128:128-f80:128-n8:16:32:64-S128"
target triple = "x86_64-pc-linux-gnu"

%struct.prov_cipher_ctx_st = type { [16 x i8], [16 x i8], [16 x i8], ptr, %union.anon, i32, i64, i64, i64, i64, i32, i8, i32, ptr, i32, i64, i32, i64, i32, ptr, ptr, ptr }
%union.anon = type { ptr }
%struct.ossl_param_st = type { ptr, i32, ptr, i64, i64 }

@.str = private unnamed_addr constant [62 x i8] c"../openssl/providers/implementations/ciphers/cipher_aes_xts.c\00", align 1
@.str.1 = private unnamed_addr constant [7 x i8] c"keylen\00", align 1
@__func__.aes_xts_set_ctx_params = private unnamed_addr constant [23 x i8] c"aes_xts_set_ctx_params\00", align 1

; Function Attrs: inlinehint nounwind uwtable
define internal i32 @ossl_param_is_empty(ptr noundef %0) #3 {
  %2 = alloca ptr, align 8
  store ptr %0, ptr %2, align 8, !tbaa !11
  %3 = load ptr, ptr %2, align 8, !tbaa !11
  %4 = icmp eq ptr %3, null
  br i1 %4, label %10, label %5

5:                                                ; preds = %1
  %6 = load ptr, ptr %2, align 8, !tbaa !11
  %7 = getelementptr inbounds nuw %struct.ossl_param_st, ptr %6, i32 0, i32 0
  %8 = load ptr, ptr %7, align 8, !tbaa !35
  %9 = icmp eq ptr %8, null
  br label %10

10:                                               ; preds = %5, %1
  %11 = phi i1 [ true, %1 ], [ %9, %5 ]
  %12 = zext i1 %11 to i32
  ret i32 %12
}

; Function Attrs: nounwind uwtable
define internal i32 @aes_xts_set_ctx_params(ptr noundef %0, ptr noundef %1) #0 {
  %3 = alloca i32, align 4
  %4 = alloca ptr, align 8
  %5 = alloca ptr, align 8
  %6 = alloca ptr, align 8
  %7 = alloca ptr, align 8
  %8 = alloca i32, align 4
  %9 = alloca i64, align 8
  store ptr %0, ptr %4, align 8, !tbaa !3
  store ptr %1, ptr %5, align 8, !tbaa !11
  call void @llvm.lifetime.start.p0(i64 8, ptr %6) #4
  %10 = load ptr, ptr %4, align 8, !tbaa !3
  store ptr %10, ptr %6, align 8, !tbaa !29
  call void @llvm.lifetime.start.p0(i64 8, ptr %7) #4
  %11 = load ptr, ptr %5, align 8, !tbaa !11
  %12 = call i32 @ossl_param_is_empty(ptr noundef %11)
  %13 = icmp ne i32 %12, 0
  br i1 %13, label %14, label %15

14:                                               ; preds = %2
  store i32 1, ptr %3, align 4
  store i32 1, ptr %8, align 4
  br label %37

15:                                               ; preds = %2
  %16 = load ptr, ptr %5, align 8, !tbaa !11
  %17 = call ptr @OSSL_PARAM_locate_const(ptr noundef %16, ptr noundef @.str.1)
  store ptr %17, ptr %7, align 8, !tbaa !11
  %18 = load ptr, ptr %7, align 8, !tbaa !11
  %19 = icmp ne ptr %18, null
  br i1 %19, label %20, label %36

20:                                               ; preds = %15
  call void @llvm.lifetime.start.p0(i64 8, ptr %9) #4
  %21 = load ptr, ptr %7, align 8, !tbaa !11
  %22 = call i32 @OSSL_PARAM_get_size_t(ptr noundef %21, ptr noundef %9)
  %23 = icmp ne i32 %22, 0
  br i1 %23, label %25, label %24

24:                                               ; preds = %20
  call void @ERR_new()
  call void @ERR_set_debug(ptr noundef @.str, i32 noundef 268, ptr noundef @__func__.aes_xts_set_ctx_params)
  call void (i32, i32, ptr, ...) @ERR_set_error(i32 noundef 57, i32 noundef 103, ptr noundef null)
  store i32 0, ptr %3, align 4
  store i32 1, ptr %8, align 4
  br label %33

25:                                               ; preds = %20
  %26 = load i64, ptr %9, align 8, !tbaa !9
  %27 = load ptr, ptr %6, align 8, !tbaa !29
  %28 = getelementptr inbounds nuw %struct.prov_cipher_ctx_st, ptr %27, i32 0, i32 6
  %29 = load i64, ptr %28, align 8, !tbaa !31
  %30 = icmp ne i64 %26, %29
  br i1 %30, label %31, label %32

31:                                               ; preds = %25
  store i32 0, ptr %3, align 4
  store i32 1, ptr %8, align 4
  br label %33

32:                                               ; preds = %25
  store i32 0, ptr %8, align 4
  br label %33

33:                                               ; preds = %32, %31, %24
  call void @llvm.lifetime.end.p0(i64 8, ptr %9) #4
  %34 = load i32, ptr %8, align 4
  switch i32 %34, label %37 [
    i32 0, label %35
  ]

35:                                               ; preds = %33
  br label %36

36:                                               ; preds = %35, %15
  store i32 1, ptr %3, align 4
  store i32 1, ptr %8, align 4
  br label %37

37:                                               ; preds = %36, %33, %14
  call void @llvm.lifetime.end.p0(i64 8, ptr %7) #4
  call void @llvm.lifetime.end.p0(i64 8, ptr %6) #4
  %38 = load i32, ptr %3, align 4
  ret i32 %38
}