; Function Attrs: nounwind uwtable
define internal range(i32 0, 2) i32 @aes_xts_set_ctx_params(ptr noundef readonly captures(none) %0, ptr noundef %1) #0 {
  %3 = alloca i64, align 8
  %4 = icmp eq ptr %1, null
  br i1 %4, label %ossl_param_is_empty.exit.thread, label %ossl_param_is_empty.exit

ossl_param_is_empty.exit:                         ; preds = %2
  %5 = load ptr, ptr %1, align 8, !tbaa !21
  %.not = icmp eq ptr %5, null
  br i1 %.not, label %ossl_param_is_empty.exit.thread, label %6

6:                                                ; preds = %ossl_param_is_empty.exit
  %7 = tail call ptr @OSSL_PARAM_locate_const(ptr noundef nonnull %1, ptr noundef nonnull @.str.1) #4
  %.not9 = icmp eq ptr %7, null
  br i1 %.not9, label %14, label %8

8:                                                ; preds = %6
  call void @llvm.lifetime.start.p0(i64 8, ptr nonnull %3) #4
  %9 = call i32 @OSSL_PARAM_get_size_t(ptr noundef nonnull %7, ptr noundef nonnull %3) #4
  %.not10 = icmp eq i32 %9, 0
  br i1 %.not10, label %.critedge, label %10

.critedge:                                        ; preds = %8
  call void @ERR_new() #4
  call void @ERR_set_debug(ptr noundef nonnull @.str, i32 noundef 268, ptr noundef nonnull @__func__.aes_xts_set_ctx_params) #4
  call void (i32, i32, ptr, ...) @ERR_set_error(i32 noundef 57, i32 noundef 103, ptr noundef null) #4
  call void @llvm.lifetime.end.p0(i64 8, ptr nonnull %3) #4
  br label %ossl_param_is_empty.exit.thread

10:                                               ; preds = %8
  %11 = load i64, ptr %3, align 8, !tbaa !3
  %12 = getelementptr inbounds nuw i8, ptr %0, i64 72
  %13 = load i64, ptr %12, align 8, !tbaa !23
  %.not11 = icmp eq i64 %11, %13
  call void @llvm.lifetime.end.p0(i64 8, ptr nonnull %3) #4
  br i1 %.not11, label %14, label %ossl_param_is_empty.exit.thread

14:                                               ; preds = %10, %6
  br label %ossl_param_is_empty.exit.thread

ossl_param_is_empty.exit.thread:                  ; preds = %2, %.critedge, %ossl_param_is_empty.exit, %10, %14
  %.07 = phi i32 [ 1, %14 ], [ 0, %10 ], [ 1, %ossl_param_is_empty.exit ], [ 0, %.critedge ], [ 1, %2 ]
  ret i32 %.07
}